Certificate:
    Data:
        Version: 1 (0x0)
        Serial Number: 1 (0x1)
    Signature Algorithm: md5WithRSAEncryption
        Issuer: O=ULAKBIM, OU=NETWORK/emailAddress=demircan.serhat@gmail.com, L=Ankara, ST=Ankara/TURKEY, C=TR, CN=serhat.ulakbim.gov.tr
        Validity
            Not Before: Jul  4 13:25:08 2012 GMT
            Not After : Jul  4 13:25:08 2013 GMT
        Subject: C=TR, ST=Ankara/TURKEY, O=ULAKBIM, OU=NETWORK, CN=serhat.ulakbim.gov.tr
        Subject Public Key Info:
            Public Key Algorithm: rsaEncryption
                Public-Key: (1024 bit)
                Modulus:
                    00:cd:0f:a5:86:54:24:77:8c:48:3f:d3:62:51:d6:
                    1e:a4:d7:ba:16:c3:f2:cf:49:b9:ff:bc:13:61:d5:
                    2e:c6:a0:2c:78:c3:b3:f0:0f:a1:2a:5f:c5:1b:94:
                    10:c4:85:c5:4e:9c:d0:14:e8:44:1d:87:f1:3c:b9:
                    5f:25:34:3b:34:70:26:81:b9:5a:75:db:e9:74:cf:
                    32:2b:9a:06:55:24:3c:26:85:d8:75:bb:be:03:e3:
                    33:36:0f:9f:5e:52:57:2c:0b:c5:3d:4c:6d:46:91:
                    72:00:f9:01:6d:39:f8:d7:eb:a3:87:31:56:41:f6:
                    66:37:40:2d:0c:bd:4c:69:85
                Exponent: 65537 (0x10001)
    Signature Algorithm: md5WithRSAEncryption
         25:f4:f9:02:0b:97:08:ca:a9:2b:70:a2:01:73:6a:5d:1b:ec:
         04:49:28:17:de:52:18:c6:71:0f:37:31:de:1e:87:bf:4e:0c:
         67:7e:76:c2:e4:a0:d6:bc:e8:01:69:60:4f:0a:e4:e8:0f:90:
         c4:d6:97:43:4a:af:59:f5:b9:88:84:1a:e2:fb:54:5d:6c:43:
         68:27:54:42:04:8d:0a:19:2e:15:00:48:92:be:49:3f:c4:5d:
         a0:c5:11:bc:d7:44:55:dc:8d:a9:66:65:62:e8:fa:68:95:9c:
         3a:fe:26:8a:2d:bd:d3:82:fd:dd:7c:d7:6e:87:88:f5:27:03:
         03:bf
-----BEGIN CERTIFICATE-----
MIICfTCCAeYCAQEwDQYJKoZIhvcNAQEEBQAwgaQxEDAOBgNVBAoTB1VMQUtCSU0x
EDAOBgNVBAsTB05FVFdPUksxKDAmBgkqhkiG9w0BCQEWGWRlbWlyY2FuLnNlcmhh
dEBnbWFpbC5jb20xDzANBgNVBAcTBkFua2FyYTEWMBQGA1UECBMNQW5rYXJhL1RV
UktFWTELMAkGA1UEBhMCVFIxHjAcBgNVBAMTFXNlcmhhdC51bGFrYmltLmdvdi50
cjAeFw0xMjA3MDQxMzI1MDhaFw0xMzA3MDQxMzI1MDhaMGkxCzAJBgNVBAYTAlRS
MRYwFAYDVQQIEw1BbmthcmEvVFVSS0VZMRAwDgYDVQQKEwdVTEFLQklNMRAwDgYD
VQQLEwdORVRXT1JLMR4wHAYDVQQDExVzZXJoYXQudWxha2JpbS5nb3YudHIwgZ8w
DQYJKoZIhvcNAQEBBQADgY0AMIGJAoGBAM0PpYZUJHeMSD/TYlHWHqTXuhbD8s9J
uf+8E2HVLsagLHjDs/APoSpfxRuUEMSFxU6c0BToRB2H8Ty5XyU0OzRwJoG5WnXb
6XTPMiuaBlUkPCaF2HW7vgPjMzYPn15SVywLxT1MbUaRcgD5AW05+Nfro4cxVkH2
ZjdALQy9TGmFAgMBAAEwDQYJKoZIhvcNAQEEBQADgYEAJfT5AguXCMqpK3CiAXNq
XRvsBEkoF95SGMZxDzcx3h6Hv04MZ352wuSg1rzoAWlgTwrk6A+QxNaXQ0qvWfW5
iIQa4vtUXWxDaCdUQgSNChkuFQBIkr5JP8RdoMURvNdEVdyNqWZlYuj6aJWcOv4m
ii2904L93XzXboeI9ScDA78=
-----END CERTIFICATE-----
