Certificate:
    Data:
        Version: 1 (0x0)
        Serial Number: 2 (0x2)
    Signature Algorithm: md5WithRSAEncryption
        Issuer: O=ULAKBIM, OU=NETWORK/emailAddress=demircan.serhat@gmail.com, L=Ankara, ST=Ankara/TURKEY, C=TR, CN=serhat.ulakbim.gov.tr
        Validity
            Not Before: Jul  5 07:31:53 2012 GMT
            Not After : Jul  5 07:31:53 2013 GMT
        Subject: C=TR, ST=Ankara/TURKEY, O=ULAKBIM, CN=serhat.ulakbim.gov.tr
        Subject Public Key Info:
            Public Key Algorithm: rsaEncryption
                Public-Key: (1024 bit)
                Modulus:
                    00:e9:b4:62:8f:c1:49:2c:4e:42:74:65:21:b0:b5:
                    b3:f2:b4:4a:a7:28:32:e5:6a:1c:f6:00:42:2b:14:
                    60:a7:9c:7f:2d:0c:ec:1c:df:2f:fe:87:f3:50:c4:
                    2f:91:ad:70:54:5e:b0:c8:14:f5:a0:70:35:93:83:
                    a2:f3:ba:ef:fc:09:60:f1:48:c4:3a:c6:8c:38:7f:
                    f9:9f:42:8f:a8:a6:83:af:8f:98:e8:a9:59:9f:00:
                    62:d5:85:9c:bd:22:04:a2:76:83:93:20:12:d3:7a:
                    ee:20:88:36:2d:c9:66:2f:6a:94:7a:69:8a:76:36:
                    8d:b5:0f:ae:fa:1f:43:63:93
                Exponent: 65537 (0x10001)
    Signature Algorithm: md5WithRSAEncryption
         4e:74:ed:fb:e7:b6:2f:c6:fa:91:30:7d:5f:40:5e:e2:36:1a:
         53:02:7c:8e:fb:5a:80:9d:84:95:49:61:40:db:ca:1b:cb:07:
         3a:a7:8b:df:a6:0b:d7:05:bf:a3:f7:c3:71:42:26:7a:d7:ae:
         4d:eb:36:d6:1f:01:8a:6e:a3:49:c9:10:13:e1:39:dc:c4:07:
         f2:47:23:24:dc:9f:5d:0a:a3:f9:41:23:9e:4b:40:a8:53:e8:
         8e:64:98:60:f8:52:34:e1:13:79:97:ab:61:a6:dd:f2:28:33:
         33:94:b6:90:0c:53:28:50:7f:3d:1a:57:f5:09:ee:1b:7b:9e:
         b0:06
-----BEGIN CERTIFICATE-----
MIICazCCAdQCAQIwDQYJKoZIhvcNAQEEBQAwgaQxEDAOBgNVBAoTB1VMQUtCSU0x
EDAOBgNVBAsTB05FVFdPUksxKDAmBgkqhkiG9w0BCQEWGWRlbWlyY2FuLnNlcmhh
dEBnbWFpbC5jb20xDzANBgNVBAcTBkFua2FyYTEWMBQGA1UECBMNQW5rYXJhL1RV
UktFWTELMAkGA1UEBhMCVFIxHjAcBgNVBAMTFXNlcmhhdC51bGFrYmltLmdvdi50
cjAeFw0xMjA3MDUwNzMxNTNaFw0xMzA3MDUwNzMxNTNaMFcxCzAJBgNVBAYTAlRS
MRYwFAYDVQQIEw1BbmthcmEvVFVSS0VZMRAwDgYDVQQKEwdVTEFLQklNMR4wHAYD
VQQDExVzZXJoYXQudWxha2JpbS5nb3YudHIwgZ8wDQYJKoZIhvcNAQEBBQADgY0A
MIGJAoGBAOm0Yo/BSSxOQnRlIbC1s/K0SqcoMuVqHPYAQisUYKecfy0M7BzfL/6H
81DEL5GtcFResMgU9aBwNZODovO67/wJYPFIxDrGjDh/+Z9Cj6img6+PmOipWZ8A
YtWFnL0iBKJ2g5MgEtN67iCINi3JZi9qlHppinY2jbUPrvofQ2OTAgMBAAEwDQYJ
KoZIhvcNAQEEBQADgYEATnTt++e2L8b6kTB9X0Be4jYaUwJ8jvtagJ2ElUlhQNvK
G8sHOqeL36YL1wW/o/fDcUImeteuTes21h8Bim6jSckQE+E53MQH8kcjJNyfXQqj
+UEjnktAqFPojmSYYPhSNOETeZerYabd8igzM5S2kAxTKFB/PRpX9QnuG3uesAY=
-----END CERTIFICATE-----
