Certificate:
    Data:
        Version: 1 (0x0)
        Serial Number: 4101 (0x1005)
    Signature Algorithm: md5WithRSAEncryption
        Issuer: O=Ulakbim, OU=Network/emailAddress=demircan.serhat@gmail.com, L=\xC3\x87anakkale, ST=\xC3\x87anakkale, C=TR, CN=localhost
        Validity
            Not Before: Sep 30 13:51:30 2012 GMT
            Not After : Sep 30 13:51:30 2013 GMT
        Subject: C=TR, ST=\xC3\x87anakkale, O=Ulakbim, OU=Network, CN=serhat
        Subject Public Key Info:
            Public Key Algorithm: rsaEncryption
                Public-Key: (1024 bit)
                Modulus:
                    00:d5:44:4a:8d:fc:a6:c6:47:4d:51:7e:df:cc:01:
                    ec:c1:4e:f1:08:4d:fa:b5:14:4c:27:93:0c:67:2e:
                    a4:c0:58:69:6e:c2:a4:78:e0:ed:e8:37:4e:ac:29:
                    44:95:19:87:b8:e1:13:e8:b6:9e:80:2b:4a:24:2b:
                    81:ff:c3:25:1c:bd:07:4a:40:94:ae:2b:5a:c7:ae:
                    b6:01:21:73:ef:3f:6d:16:02:97:1e:85:b4:d8:48:
                    35:a2:65:58:8e:c5:9f:3d:c0:5d:f8:d7:3d:84:c1:
                    f2:54:37:05:34:d2:dd:b7:48:ba:7b:fd:5c:1e:59:
                    08:62:f0:b9:6c:4d:ce:0d:25
                Exponent: 65537 (0x10001)
    Signature Algorithm: md5WithRSAEncryption
         27:0f:69:7f:f0:f9:c5:2b:1c:c2:9b:6f:ac:ca:b6:c2:d0:1f:
         76:1f:05:f8:b3:be:ec:c7:1d:54:9b:99:77:df:85:4d:cf:78:
         40:a3:c8:fe:ea:e4:51:bc:12:84:c4:09:8f:61:c3:a5:74:09:
         5c:b1:38:1b:b1:ad:82:64:b2:82:83:b8:5c:8c:05:38:06:de:
         63:90:ce:5f:18:41:1d:53:4a:99:57:d9:64:ed:24:49:05:23:
         96:56:4b:21:cb:e6:d6:65:c0:f5:1c:5e:a7:d6:85:19:35:eb:
         0e:9a:5b:55:ea:14:87:b5:0b:1d:23:e8:53:d5:9a:12:ee:86:
         07:2a
-----BEGIN CERTIFICATE-----
MIICYTCCAcoCAhAFMA0GCSqGSIb3DQEBBAUAMIGZMRAwDgYDVQQKEwdVbGFrYmlt
MRAwDgYDVQQLEwdOZXR3b3JrMSgwJgYJKoZIhvcNAQkBFhlkZW1pcmNhbi5zZXJo
YXRAZ21haWwuY29tMRMwEQYDVQQHFArDh2FuYWtrYWxlMRMwEQYDVQQIFArDh2Fu
YWtrYWxlMQswCQYDVQQGEwJUUjESMBAGA1UEAxMJbG9jYWxob3N0MB4XDTEyMDkz
MDEzNTEzMFoXDTEzMDkzMDEzNTEzMFowVzELMAkGA1UEBhMCVFIxEzARBgNVBAgU
CsOHYW5ha2thbGUxEDAOBgNVBAoTB1VsYWtiaW0xEDAOBgNVBAsTB05ldHdvcmsx
DzANBgNVBAMTBnNlcmhhdDCBnzANBgkqhkiG9w0BAQEFAAOBjQAwgYkCgYEA1URK
jfymxkdNUX7fzAHswU7xCE36tRRMJ5MMZy6kwFhpbsKkeODt6DdOrClElRmHuOET
6LaegCtKJCuB/8MlHL0HSkCUritax662ASFz7z9tFgKXHoW02Eg1omVYjsWfPcBd
+Nc9hMHyVDcFNNLdt0i6e/1cHlkIYvC5bE3ODSUCAwEAATANBgkqhkiG9w0BAQQF
AAOBgQAnD2l/8PnFKxzCm2+syrbC0B92HwX4s77sxx1Um5l334VNz3hAo8j+6uRR
vBKExAmPYcOldAlcsTgbsa2CZLKCg7hcjAU4Bt5jkM5fGEEdU0qZV9lk7SRJBSOW
Vkshy+bWZcD1HF6n1oUZNesOmltV6hSHtQsdI+hT1ZoS7oYHKg==
-----END CERTIFICATE-----
