Certificate:
    Data:
        Version: 1 (0x0)
        Serial Number: 4097 (0x1001)
    Signature Algorithm: md5WithRSAEncryption
        Issuer: O=Ulakbim, OU=Network/emailAddress=demircan.serhat@gmail.com, L=\xC3\x87anakkale, ST=\xC3\x87anakkale, C=TR, CN=localhost
        Validity
            Not Before: Sep 30 13:41:18 2012 GMT
            Not After : Sep 30 13:41:18 2013 GMT
        Subject: C=TR, ST=\xC3\x87anakkale, O=Ulakbim, OU=Network, CN=localhost
        Subject Public Key Info:
            Public Key Algorithm: rsaEncryption
                Public-Key: (1024 bit)
                Modulus:
                    00:9a:e4:4c:76:80:fd:c2:cb:49:9a:d2:b7:79:a3:
                    73:29:48:50:8c:99:b9:46:42:a1:15:50:cd:5a:94:
                    ae:a0:ff:2b:4a:56:77:da:09:51:40:6f:b2:ab:f9:
                    81:2a:0a:5c:a5:eb:32:a0:16:8d:e2:c4:79:86:4a:
                    01:87:2c:5a:b0:5d:b5:69:d4:c7:41:1a:9a:95:ce:
                    c2:04:6c:36:f4:eb:12:e0:bb:c6:09:1e:48:79:0c:
                    c8:fa:24:27:a0:54:f0:01:a2:e3:b4:24:db:bc:77:
                    93:4e:f3:8b:d0:02:9e:c1:79:b2:1a:81:a7:bd:0f:
                    56:7f:fe:6b:30:db:35:07:99
                Exponent: 65537 (0x10001)
    Signature Algorithm: md5WithRSAEncryption
         26:04:66:cc:fe:41:e9:0c:07:9f:d1:fe:f9:0a:22:52:f0:6a:
         f6:40:f4:66:d5:f7:1a:b1:f8:04:70:30:08:55:fd:44:fc:4a:
         49:c8:ba:d1:17:a6:ad:0a:93:b5:d2:39:a8:78:d6:f9:55:1f:
         63:83:2e:c8:b3:98:47:f6:c7:55:91:41:5e:a4:c4:3f:8a:b7:
         a8:1d:21:ab:6b:2e:98:82:84:33:af:21:32:93:8b:af:ee:9a:
         f4:c9:e0:3c:1e:d5:0c:fa:9a:3b:6a:14:0c:c1:7d:ec:8e:c7:
         b5:ae:c4:6b:ec:3a:1a:71:7f:0f:79:f8:01:b0:ec:f6:90:51:
         dd:85
-----BEGIN CERTIFICATE-----
MIICZDCCAc0CAhABMA0GCSqGSIb3DQEBBAUAMIGZMRAwDgYDVQQKEwdVbGFrYmlt
MRAwDgYDVQQLEwdOZXR3b3JrMSgwJgYJKoZIhvcNAQkBFhlkZW1pcmNhbi5zZXJo
YXRAZ21haWwuY29tMRMwEQYDVQQHFArDh2FuYWtrYWxlMRMwEQYDVQQIFArDh2Fu
YWtrYWxlMQswCQYDVQQGEwJUUjESMBAGA1UEAxMJbG9jYWxob3N0MB4XDTEyMDkz
MDEzNDExOFoXDTEzMDkzMDEzNDExOFowWjELMAkGA1UEBhMCVFIxEzARBgNVBAgU
CsOHYW5ha2thbGUxEDAOBgNVBAoTB1VsYWtiaW0xEDAOBgNVBAsTB05ldHdvcmsx
EjAQBgNVBAMTCWxvY2FsaG9zdDCBnzANBgkqhkiG9w0BAQEFAAOBjQAwgYkCgYEA
muRMdoD9wstJmtK3eaNzKUhQjJm5RkKhFVDNWpSuoP8rSlZ32glRQG+yq/mBKgpc
pesyoBaN4sR5hkoBhyxasF21adTHQRqalc7CBGw29OsS4LvGCR5IeQzI+iQnoFTw
AaLjtCTbvHeTTvOL0AKewXmyGoGnvQ9Wf/5rMNs1B5kCAwEAATANBgkqhkiG9w0B
AQQFAAOBgQAmBGbM/kHpDAef0f75CiJS8Gr2QPRm1fcasfgEcDAIVf1E/EpJyLrR
F6atCpO10jmoeNb5VR9jgy7Is5hH9sdVkUFepMQ/ireoHSGray6YgoQzryEyk4uv
7pr0yeA8HtUM+po7ahQMwX3sjse1rsRr7DoacX8PefgBsOz2kFHdhQ==
-----END CERTIFICATE-----
